target datalayout = "e-m:e-p270:32:32-p271:32:32-p272:64:64-i64:64-i128:128-f80:128-n8:16:32:64-S128"
target triple = "x86_64-pc-linux-gnu"

%"class.clang::Selector" = type { %"class.llvm::PointerIntPair" }
%"class.llvm::PointerIntPair" = type { %"struct.llvm::detail::PunnedPointer" }
%"struct.llvm::detail::PunnedPointer" = type { [8 x i8] }
%"class.std::optional.349" = type { %"struct.std::_Optional_base.350" }
%"struct.std::_Optional_base.350" = type { %"struct.std::_Optional_payload.352" }
%"struct.std::_Optional_payload.352" = type { %"struct.std::_Optional_payload_base.base.354", [3 x i8] }
%"struct.std::_Optional_payload_base.base.354" = type <{ %"union.std::_Optional_payload_base<clang::NSAPI::NSSetMethodKind>::_Storage", i8 }>
%"union.std::_Optional_payload_base<clang::NSAPI::NSSetMethodKind>::_Storage" = type { i32 }
%"struct.std::_Optional_payload_base.353" = type <{ %"union.std::_Optional_payload_base<clang::NSAPI::NSSetMethodKind>::_Storage", i8, [3 x i8] }>

; Function Attrs: mustprogress nounwind uwtable
define linkonce_odr hidden void @_ZNSt22_Optional_payload_baseIN5clang5NSAPI15NSSetMethodKindEE8_StorageIS2_Lb1EEC2Ev(ptr noundef nonnull align 4 dereferenceable(4) %0) unnamed_addr #0 comdat align 2 {
  %2 = alloca ptr, align 8
  store ptr %0, ptr %2, align 8
  ret void
}

; Function Attrs: mustprogress nounwind uwtable
define linkonce_odr hidden void @_ZNSt22_Optional_payload_baseIN5clang5NSAPI15NSSetMethodKindEE8_StorageIS2_Lb1EEC2IJS2_EEESt10in_place_tDpOT_(ptr noundef nonnull align 4 dereferenceable(4) %0, ptr noundef nonnull align 4 dereferenceable(4) %1) unnamed_addr #0 comdat align 2 {
  %3 = alloca ptr, align 8
  %4 = alloca ptr, align 8
  store ptr %0, ptr %3, align 8
  store ptr %1, ptr %4, align 8
  %5 = load ptr, ptr %3, align 8
  %6 = load ptr, ptr %4, align 8
  %7 = load i32, ptr %6, align 4
  store i32 %7, ptr %5, align 4
  ret void
}

; Function Attrs: mustprogress nounwind uwtable
define linkonce_odr hidden void @_ZNSt22_Optional_payload_baseIN5clang5NSAPI15NSSetMethodKindEEC2Ev(ptr noundef nonnull align 4 dereferenceable(5) %0) unnamed_addr #0 comdat align 2 {
  %2 = alloca ptr, align 8
  store ptr %0, ptr %2, align 8
  %3 = load ptr, ptr %2, align 8
  %4 = getelementptr inbounds nuw %"struct.std::_Optional_payload_base.353", ptr %3, i32 0, i32 0
  call void @_ZNSt22_Optional_payload_baseIN5clang5NSAPI15NSSetMethodKindEE8_StorageIS2_Lb1EEC2Ev(ptr noundef nonnull align 4 dereferenceable(4) %4) #7
  %5 = getelementptr inbounds nuw %"struct.std::_Optional_payload_base.353", ptr %3, i32 0, i32 1
  store i8 0, ptr %5, align 4
  ret void
}

; Function Attrs: mustprogress nounwind uwtable
define linkonce_odr hidden void @_ZNSt22_Optional_payload_baseIN5clang5NSAPI15NSSetMethodKindEEC2IJS2_EEESt10in_place_tDpOT_(ptr noundef nonnull align 4 dereferenceable(5) %0, ptr noundef nonnull align 4 dereferenceable(4) %1) unnamed_addr #0 comdat align 2 {
  %3 = alloca ptr, align 8
  %4 = alloca ptr, align 8
  store ptr %0, ptr %3, align 8
  store ptr %1, ptr %4, align 8
  %5 = load ptr, ptr %3, align 8
  %6 = getelementptr inbounds nuw %"struct.std::_Optional_payload_base.353", ptr %5, i32 0, i32 0
  %7 = load ptr, ptr %4, align 8
  call void @_ZNSt22_Optional_payload_baseIN5clang5NSAPI15NSSetMethodKindEE8_StorageIS2_Lb1EEC2IJS2_EEESt10in_place_tDpOT_(ptr noundef nonnull align 4 dereferenceable(4) %6, ptr noundef nonnull align 4 dereferenceable(4) %7)
  %8 = getelementptr inbounds nuw %"struct.std::_Optional_payload_base.353", ptr %5, i32 0, i32 1
  store i8 1, ptr %8, align 4
  ret void
}

; Function Attrs: mustprogress nounwind uwtable
define linkonce_odr hidden void @_ZNSt17_Optional_payloadIN5clang5NSAPI15NSSetMethodKindELb1ELb1ELb1EEC2Ev(ptr noundef nonnull align 4 dereferenceable(5) %0) unnamed_addr #0 comdat align 2 {
  %2 = alloca ptr, align 8
  store ptr %0, ptr %2, align 8
  %3 = load ptr, ptr %2, align 8
  call void @_ZNSt22_Optional_payload_baseIN5clang5NSAPI15NSSetMethodKindEEC2Ev(ptr noundef nonnull align 4 dereferenceable(5) %3) #7
  ret void
}

; Function Attrs: mustprogress nounwind uwtable
define linkonce_odr hidden void @_ZNSt17_Optional_payloadIN5clang5NSAPI15NSSetMethodKindELb1ELb1ELb1EECI2St22_Optional_payload_baseIS2_EIJS2_EEESt10in_place_tDpOT_(ptr noundef nonnull align 4 dereferenceable(5) %0, ptr noundef nonnull align 4 dereferenceable(4) %1) unnamed_addr #0 comdat align 2 {
  %3 = alloca ptr, align 8
  %4 = alloca ptr, align 8
  store ptr %0, ptr %3, align 8
  store ptr %1, ptr %4, align 8
  %5 = load ptr, ptr %3, align 8
  %6 = load ptr, ptr %4, align 8
  call void @_ZNSt22_Optional_payload_baseIN5clang5NSAPI15NSSetMethodKindEEC2IJS2_EEESt10in_place_tDpOT_(ptr noundef nonnull align 4 dereferenceable(5) %5, ptr noundef nonnull align 4 dereferenceable(4) %6)
  ret void
}

; Function Attrs: mustprogress nounwind uwtable
define linkonce_odr hidden noundef i64 @_ZNK4llvm6detail13PunnedPointerINS_12PointerUnionIJPKN5clang14IdentifierInfoEPNS3_20MultiKeywordSelectorEEEEE5asIntEv(ptr noundef nonnull align 8 dereferenceable(8) %0) #0 comdat align 2 {
  %2 = alloca ptr, align 8
  %3 = alloca i64, align 8
  store ptr %0, ptr %2, align 8
  %4 = load ptr, ptr %2, align 8
  store i64 0, ptr %3, align 8
  %5 = getelementptr inbounds nuw %"struct.llvm::detail::PunnedPointer", ptr %4, i32 0, i32 0
  %6 = getelementptr inbounds [8 x i8], ptr %5, i64 0, i64 0
  call void @llvm.memcpy.p0.p0.i64(ptr align 8 %3, ptr align 8 %6, i64 8, i1 false)
  %7 = load i64, ptr %3, align 8
  ret i64 %7
}

; Function Attrs: mustprogress nounwind uwtable
define linkonce_odr hidden void @_ZNSt14_Optional_baseIN5clang5NSAPI15NSSetMethodKindELb1ELb1EEC2Ev(ptr noundef nonnull align 4 dereferenceable(8) %0) unnamed_addr #0 comdat align 2 {
  %2 = alloca ptr, align 8
  store ptr %0, ptr %2, align 8
  %3 = load ptr, ptr %2, align 8
  %4 = getelementptr inbounds nuw %"struct.std::_Optional_base.350", ptr %3, i32 0, i32 0
  call void @_ZNSt17_Optional_payloadIN5clang5NSAPI15NSSetMethodKindELb1ELb1ELb1EEC2Ev(ptr noundef nonnull align 4 dereferenceable(5) %4) #7
  ret void
}

; Function Attrs: mustprogress nounwind uwtable
define linkonce_odr hidden void @_ZNSt14_Optional_baseIN5clang5NSAPI15NSSetMethodKindELb1ELb1EEC2IJS2_ETnNSt9enable_ifIX18is_constructible_vIS2_DpT_EEbE4typeELb0EEESt10in_place_tDpOS6_(ptr noundef nonnull align 4 dereferenceable(8) %0, ptr noundef nonnull align 4 dereferenceable(4) %1) unnamed_addr #0 comdat align 2 {
  %3 = alloca ptr, align 8
  %4 = alloca ptr, align 8
  store ptr %0, ptr %3, align 8
  store ptr %1, ptr %4, align 8
  %5 = load ptr, ptr %3, align 8
  %6 = getelementptr inbounds nuw %"struct.std::_Optional_base.350", ptr %5, i32 0, i32 0
  %7 = load ptr, ptr %4, align 8
  call void @_ZNSt17_Optional_payloadIN5clang5NSAPI15NSSetMethodKindELb1ELb1ELb1EECI2St22_Optional_payload_baseIS2_EIJS2_EEESt10in_place_tDpOT_(ptr noundef nonnull align 4 dereferenceable(5) %6, ptr noundef nonnull align 4 dereferenceable(4) %7)
  ret void
}

; Function Attrs: mustprogress nounwind uwtable
define linkonce_odr hidden noundef ptr @_ZNK4llvm14PointerIntPairINS_12PointerUnionIJPKN5clang14IdentifierInfoEPNS2_20MultiKeywordSelectorEEEELj2EjNS_21PointerLikeTypeTraitsIS8_EENS_18PointerIntPairInfoIS8_Lj2ESA_EEE14getOpaqueValueEv(ptr noundef nonnull align 8 dereferenceable(8) %0) #0 comdat align 2 {
  %2 = alloca ptr, align 8
  store ptr %0, ptr %2, align 8
  %3 = load ptr, ptr %2, align 8
  %4 = getelementptr inbounds nuw %"class.llvm::PointerIntPair", ptr %3, i32 0, i32 0
  %5 = call noundef i64 @_ZNK4llvm6detail13PunnedPointerINS_12PointerUnionIJPKN5clang14IdentifierInfoEPNS3_20MultiKeywordSelectorEEEEE5asIntEv(ptr noundef nonnull align 8 dereferenceable(8) %4)
  %6 = inttoptr i64 %5 to ptr
  ret ptr %6
}

; Function Attrs: mustprogress nounwind uwtable
define linkonce_odr hidden void @_ZNSt8optionalIN5clang5NSAPI15NSSetMethodKindEEC2ESt9nullopt_t(ptr noundef nonnull align 4 dereferenceable(8) %0) unnamed_addr #0 comdat align 2 {
  %2 = alloca ptr, align 8
  store ptr %0, ptr %2, align 8
  %3 = load ptr, ptr %2, align 8
  call void @_ZNSt14_Optional_baseIN5clang5NSAPI15NSSetMethodKindELb1ELb1EEC2Ev(ptr noundef nonnull align 4 dereferenceable(8) %3) #7
  ret void
}

; Function Attrs: mustprogress nounwind uwtable
define linkonce_odr hidden void @_ZNSt8optionalIN5clang5NSAPI15NSSetMethodKindEEC2IS2_TnNSt9enable_ifIX7__and_vISt6__not_ISt7is_sameIS3_NSt9remove_cvINSt16remove_referenceIT_E4typeEE4typeEEES6_IS7_ISt10in_place_tSE_EESt16is_constructibleIS2_JSA_EESt14is_convertibleISA_S2_EEEbE4typeELb1EEEOSA_(ptr noundef nonnull align 4 dereferenceable(8) %0, ptr noundef nonnull align 4 dereferenceable(4) %1) unnamed_addr #0 comdat align 2 {
  %3 = alloca ptr, align 8
  %4 = alloca ptr, align 8
  store ptr %0, ptr %3, align 8
  store ptr %1, ptr %4, align 8
  %5 = load ptr, ptr %3, align 8
  %6 = load ptr, ptr %4, align 8
  call void @_ZNSt14_Optional_baseIN5clang5NSAPI15NSSetMethodKindELb1ELb1EEC2IJS2_ETnNSt9enable_ifIX18is_constructible_vIS2_DpT_EEbE4typeELb0EEESt10in_place_tDpOS6_(ptr noundef nonnull align 4 dereferenceable(8) %5, ptr noundef nonnull align 4 dereferenceable(4) %6)
  ret void
}

; Function Attrs: mustprogress nounwind uwtable
define linkonce_odr hidden noundef zeroext i1 @_ZNK5clang8SelectoreqES0_(ptr noundef nonnull align 8 dereferenceable(8) %0, i64 %1) #0 comdat align 2 {
  %3 = alloca %"class.clang::Selector", align 8
  %4 = alloca ptr, align 8
  %5 = getelementptr inbounds nuw %"class.clang::Selector", ptr %3, i32 0, i32 0
  %6 = getelementptr inbounds nuw %"class.llvm::PointerIntPair", ptr %5, i32 0, i32 0
  %7 = getelementptr inbounds nuw %"struct.llvm::detail::PunnedPointer", ptr %6, i32 0, i32 0
  store i64 %1, ptr %7, align 8
  store ptr %0, ptr %4, align 8
  %8 = load ptr, ptr %4, align 8
  %9 = getelementptr inbounds nuw %"class.clang::Selector", ptr %8, i32 0, i32 0
  %10 = call noundef ptr @_ZNK4llvm14PointerIntPairINS_12PointerUnionIJPKN5clang14IdentifierInfoEPNS2_20MultiKeywordSelectorEEEELj2EjNS_21PointerLikeTypeTraitsIS8_EENS_18PointerIntPairInfoIS8_Lj2ESA_EEE14getOpaqueValueEv(ptr noundef nonnull align 8 dereferenceable(8) %9)
  %11 = getelementptr inbounds nuw %"class.clang::Selector", ptr %3, i32 0, i32 0
  %12 = call noundef ptr @_ZNK4llvm14PointerIntPairINS_12PointerUnionIJPKN5clang14IdentifierInfoEPNS2_20MultiKeywordSelectorEEEELj2EjNS_21PointerLikeTypeTraitsIS8_EENS_18PointerIntPairInfoIS8_Lj2ESA_EEE14getOpaqueValueEv(ptr noundef nonnull align 8 dereferenceable(8) %11)
  %13 = icmp eq ptr %10, %12
  ret i1 %13
}

; Function Attrs: mustprogress nounwind uwtable
define dso_local i64 @_ZN5clang5NSAPI18getNSSetMethodKindENS_8SelectorE(ptr noundef nonnull align 8 dereferenceable(712) %0, i64 %1) #0 align 2 {
  %3 = alloca %"class.std::optional.349", align 4
  %4 = alloca %"class.clang::Selector", align 8
  %5 = alloca ptr, align 8
  %6 = alloca i32, align 4
  %7 = alloca i32, align 4
  %8 = alloca %"class.clang::Selector", align 8
  %9 = getelementptr inbounds nuw %"class.clang::Selector", ptr %4, i32 0, i32 0
  %10 = getelementptr inbounds nuw %"class.llvm::PointerIntPair", ptr %9, i32 0, i32 0
  %11 = getelementptr inbounds nuw %"struct.llvm::detail::PunnedPointer", ptr %10, i32 0, i32 0
  store i64 %1, ptr %11, align 8
  store ptr %0, ptr %5, align 8
  %12 = load ptr, ptr %5, align 8
  store i32 0, ptr %6, align 4
  br label %13

13:                                               ; preds = %30, %2
  %14 = load i32, ptr %6, align 4
  %15 = icmp ne i32 %14, 5
  br i1 %15, label %16, label %33

16:                                               ; preds = %13
  %17 = load i32, ptr %6, align 4
  store i32 %17, ptr %7, align 4
  %18 = load i32, ptr %7, align 4
  %19 = call i64 @_ZNK5clang5NSAPI16getNSSetSelectorENS0_15NSSetMethodKindE(ptr noundef nonnull align 8 dereferenceable(712) %12, i32 noundef %18)
  %20 = getelementptr inbounds nuw %"class.clang::Selector", ptr %8, i32 0, i32 0
  %21 = getelementptr inbounds nuw %"class.llvm::PointerIntPair", ptr %20, i32 0, i32 0
  %22 = getelementptr inbounds nuw %"struct.llvm::detail::PunnedPointer", ptr %21, i32 0, i32 0
  store i64 %19, ptr %22, align 8
  %23 = getelementptr inbounds nuw %"class.clang::Selector", ptr %8, i32 0, i32 0
  %24 = getelementptr inbounds nuw %"class.llvm::PointerIntPair", ptr %23, i32 0, i32 0
  %25 = getelementptr inbounds nuw %"struct.llvm::detail::PunnedPointer", ptr %24, i32 0, i32 0
  %26 = load i64, ptr %25, align 8
  %27 = call noundef zeroext i1 @_ZNK5clang8SelectoreqES0_(ptr noundef nonnull align 8 dereferenceable(8) %4, i64 %26)
  br i1 %27, label %28, label %29

28:                                               ; preds = %16
  call void @_ZNSt8optionalIN5clang5NSAPI15NSSetMethodKindEEC2IS2_TnNSt9enable_ifIX7__and_vISt6__not_ISt7is_sameIS3_NSt9remove_cvINSt16remove_referenceIT_E4typeEE4typeEEES6_IS7_ISt10in_place_tSE_EESt16is_constructibleIS2_JSA_EESt14is_convertibleISA_S2_EEEbE4typeELb1EEEOSA_(ptr noundef nonnull align 4 dereferenceable(8) %3, ptr noundef nonnull align 4 dereferenceable(4) %7) #7
  br label %34

29:                                               ; preds = %16
  br label %30

30:                                               ; preds = %29
  %31 = load i32, ptr %6, align 4
  %32 = add i32 %31, 1
  store i32 %32, ptr %6, align 4
  br label %13, !llvm.loop !7

33:                                               ; preds = %13
  call void @_ZNSt8optionalIN5clang5NSAPI15NSSetMethodKindEEC2ESt9nullopt_t(ptr noundef nonnull align 4 dereferenceable(8) %3) #7
  br label %34

34:                                               ; preds = %33, %28
  %35 = getelementptr inbounds nuw %"class.std::optional.349", ptr %3, i32 0, i32 0
  %36 = getelementptr inbounds nuw %"struct.std::_Optional_base.350", ptr %35, i32 0, i32 0
  %37 = load i64, ptr %36, align 4
  ret i64 %37
}